target datalayout = "e-m:e-p270:32:32-p271:32:32-p272:64:64-i64:64-i128:128-f80:128-n8:16:32:64-S128"
target triple = "x86_64-pc-linux-gnu"

%struct.Settings = type { i32, i32, i32, float, i32, i32, i8, i8, i8, i8, i8, i8, i8, i8, i8, i8, i8, i8, i8, i8, i8, i8, i8, i8, i8, i8 }
%struct.Camera = type { %struct.b2Vec2, float, i32, i32 }
%struct.b2Vec2 = type { float, float }

@_ZL10s_settings = internal global %struct.Settings { i32 0, i32 1920, i32 1080, float 6.000000e+01, i32 4, i32 1, i8 0, i8 1, i8 1, i8 0, i8 0, i8 0, i8 0, i8 0, i8 0, i8 0, i8 0, i8 0, i8 0, i8 0, i8 1, i8 1, i8 1, i8 0, i8 0, i8 0 }, align 4
@g_camera = external global %struct.Camera, align 4
@_ZL13s_windowScale = internal global float 1.000000e+00, align 4

; Function Attrs: mustprogress nounwind uwtable
define internal void @_ZL20ResizeWindowCallbackP10GLFWwindowii(ptr noundef %0, i32 noundef %1, i32 noundef %2) #1 {
  %4 = alloca ptr, align 8
  %5 = alloca i32, align 4
  %6 = alloca i32, align 4
  store ptr %0, ptr %4, align 8, !tbaa !38
  store i32 %1, ptr %5, align 4, !tbaa !4
  store i32 %2, ptr %6, align 4, !tbaa !4
  %7 = load i32, ptr %5, align 4, !tbaa !4
  %8 = sitofp i32 %7 to float
  %9 = load float, ptr @_ZL13s_windowScale, align 4, !tbaa !37
  %10 = fdiv float %8, %9
  %11 = fptosi float %10 to i32
  store i32 %11, ptr getelementptr inbounds nuw (%struct.Camera, ptr @g_camera, i32 0, i32 2), align 4, !tbaa !23
  %12 = load i32, ptr %6, align 4, !tbaa !4
  %13 = sitofp i32 %12 to float
  %14 = load float, ptr @_ZL13s_windowScale, align 4, !tbaa !37
  %15 = fdiv float %13, %14
  %16 = fptosi float %15 to i32
  store i32 %16, ptr getelementptr inbounds nuw (%struct.Camera, ptr @g_camera, i32 0, i32 3), align 4, !tbaa !27
  %17 = load i32, ptr %5, align 4, !tbaa !4
  %18 = sitofp i32 %17 to float
  %19 = load float, ptr @_ZL13s_windowScale, align 4, !tbaa !37
  %20 = fdiv float %18, %19
  %21 = fptosi float %20 to i32
  store i32 %21, ptr getelementptr inbounds nuw (%struct.Settings, ptr @_ZL10s_settings, i32 0, i32 1), align 4, !tbaa !22
  %22 = load i32, ptr %6, align 4, !tbaa !4
  %23 = sitofp i32 %22 to float
  %24 = load float, ptr @_ZL13s_windowScale, align 4, !tbaa !37
  %25 = fdiv float %23, %24
  %26 = fptosi float %25 to i32
  store i32 %26, ptr getelementptr inbounds nuw (%struct.Settings, ptr @_ZL10s_settings, i32 0, i32 2), align 4, !tbaa !26
  ret void
}