; Function Attrs: mustprogress nofree norecurse nosync nounwind willreturn memory(readwrite, argmem: none, inaccessiblemem: none) uwtable
define internal void @_ZL20ResizeWindowCallbackP10GLFWwindowii(ptr readnone captures(none) %0, i32 noundef %1, i32 noundef %2) #11 {
  %4 = sitofp i32 %1 to float
  %5 = load float, ptr @_ZL13s_windowScale, align 4, !tbaa !21
  %6 = fdiv float %4, %5
  %7 = fptosi float %6 to i32
  store i32 %7, ptr getelementptr inbounds nuw (i8, ptr @g_camera, i64 12), align 4, !tbaa !16
  %8 = sitofp i32 %2 to float
  %9 = fdiv float %8, %5
  %10 = fptosi float %9 to i32
  store i32 %10, ptr getelementptr inbounds nuw (i8, ptr @g_camera, i64 16), align 4, !tbaa !20
  store i32 %7, ptr getelementptr inbounds nuw (i8, ptr @_ZL10s_settings, i64 4), align 4, !tbaa !15
  store i32 %10, ptr getelementptr inbounds nuw (i8, ptr @_ZL10s_settings, i64 8), align 4, !tbaa !19
  ret void
}